target datalayout = "e-m:e-p270:32:32-p271:32:32-p272:64:64-i64:64-i128:128-f80:128-n8:16:32:64-S128"
target triple = "x86_64-pc-linux-gnu"

%class.ExceptionMessageBuilder = type <{ ptr, ptr, i32, i8, i8, [2 x i8] }>
%class.Method = type { %class.Metadata, ptr, ptr, ptr, ptr, %class.AccessFlags, i32, %class.MethodFlags, i16, %class.JfrTraceFlag, ptr, ptr, ptr, ptr }
%class.Metadata = type { ptr }
%class.AccessFlags = type { i32 }
%class.MethodFlags = type { i32 }
%class.JfrTraceFlag = type { i16 }
%class.ConstMethod = type <{ i64, ptr, ptr, i32, %class.ConstMethodFlags, i8, i8, i16, i16, i16, i16, i16, i16, i16, i16, i16, [4 x i8] }>
%class.ConstMethodFlags = type { i32 }
%class.ArgumentSizeComputer = type <{ %class.SignatureIterator, i32, [4 x i8] }>
%class.SignatureIterator = type { ptr, i8, i64 }
%class.Symbol = type { i32, i16, [2 x i8] }

@type2size = external global [20 x i32], align 16
@_ZN9Bytecodes10_java_codeE = external constant [239 x i32], align 16
@_ZN6Symbol11_vm_symbolsE = external global [0 x ptr], align 8

; Function Attrs: mustprogress nounwind uwtable
define internal noundef i64 @_ZL14alignment_maskImTnNSt9enable_ifIXcvbsr3std11is_integralIT_EE5valueEiE4typeELi0EES1_S1_(i64 noundef %0) #1 {
  %2 = alloca i64, align 8
  store i64 %0, ptr %2, align 8
  %3 = load i64, ptr %2, align 8
  %4 = sub i64 %3, 1
  ret i64 %4
}

; Function Attrs: mustprogress nounwind uwtable
define linkonce_odr hidden noundef zeroext i1 @_Z10is_alignedImmTnNSt9enable_ifIXcvbsr3std11is_integralIT_EE5valueEiE4typeELi0EEbS1_T0_(i64 noundef %0, i64 noundef %1) #1 comdat {
  %3 = alloca i64, align 8
  %4 = alloca i64, align 8
  store i64 %0, ptr %3, align 8
  store i64 %1, ptr %4, align 8
  %5 = load i64, ptr %3, align 8
  %6 = load i64, ptr %4, align 8
  %7 = call noundef i64 @_ZL14alignment_maskImTnNSt9enable_ifIXcvbsr3std11is_integralIT_EE5valueEiE4typeELi0EES1_S1_(i64 noundef %6)
  %8 = and i64 %5, %7
  %9 = icmp eq i64 %8, 0
  ret i1 %9
}

; Function Attrs: mustprogress nounwind uwtable
define linkonce_odr hidden noundef ptr @_ZNK6Symbol4baseEv(ptr noundef nonnull align 4 dereferenceable(8) %0) #1 comdat align 2 {
  %2 = alloca ptr, align 8
  store ptr %0, ptr %2, align 8
  %3 = load ptr, ptr %2, align 8
  %4 = getelementptr inbounds %class.Symbol, ptr %3, i32 0, i32 2
  %5 = getelementptr inbounds [2 x i8], ptr %4, i64 0, i64 0
  ret ptr %5
}

; Function Attrs: mustprogress nounwind uwtable
define linkonce_odr hidden noundef ptr @_ZNK12ConstantPool4baseEv(ptr noundef nonnull align 8 dereferenceable(68) %0) #1 comdat align 2 {
  %2 = alloca ptr, align 8
  store ptr %0, ptr %2, align 8
  %3 = load ptr, ptr %2, align 8
  %4 = getelementptr inbounds i8, ptr %3, i64 72
  ret ptr %4
}

; Function Attrs: mustprogress nounwind uwtable
define linkonce_odr hidden noundef zeroext i1 @_Z10is_alignedIKvmEbPT_T0_(ptr noundef %0, i64 noundef %1) #1 comdat {
  %3 = alloca ptr, align 8
  %4 = alloca i64, align 8
  store ptr %0, ptr %3, align 8
  store i64 %1, ptr %4, align 8
  %5 = load ptr, ptr %3, align 8
  %6 = ptrtoint ptr %5 to i64
  %7 = load i64, ptr %4, align 8
  %8 = call noundef zeroext i1 @_Z10is_alignedImmTnNSt9enable_ifIXcvbsr3std11is_integralIT_EE5valueEiE4typeELi0EEbS1_T0_(i64 noundef %6, i64 noundef %7)
  ret i1 %8
}

; Function Attrs: mustprogress nounwind uwtable
define linkonce_odr hidden void @_ZN9Bytecodes5checkENS_4CodeE(i32 noundef %0) #1 comdat align 2 {
  %2 = alloca i32, align 4
  store i32 %0, ptr %2, align 4
  ret void
}

; Function Attrs: mustprogress nounwind uwtable
define linkonce_odr hidden noundef i32 @_ZN9Bytecodes4castEi(i32 noundef %0) #1 comdat align 2 {
  %2 = alloca i32, align 4
  store i32 %0, ptr %2, align 4
  %3 = load i32, ptr %2, align 4
  ret i32 %3
}

; Function Attrs: mustprogress nounwind uwtable
define linkonce_odr hidden noundef signext i8 @_ZNK6Symbol7char_atEi(ptr noundef nonnull align 4 dereferenceable(8) %0, i32 noundef %1) #1 comdat align 2 {
  %3 = alloca ptr, align 8
  %4 = alloca i32, align 4
  store ptr %0, ptr %3, align 8
  store i32 %1, ptr %4, align 4
  %5 = load ptr, ptr %3, align 8
  %6 = call noundef ptr @_ZNK6Symbol4baseEv(ptr noundef nonnull align 4 dereferenceable(8) %5)
  %7 = load i32, ptr %4, align 4
  %8 = sext i32 %7 to i64
  %9 = getelementptr inbounds i8, ptr %6, i64 %8
  %10 = load i8, ptr %9, align 1
  ret i8 %10
}

; Function Attrs: mustprogress nounwind uwtable
define linkonce_odr hidden noundef ptr @_ZNK12ConstantPool14symbol_at_addrEi(ptr noundef nonnull align 8 dereferenceable(68) %0, i32 noundef %1) #1 comdat align 2 {
  %3 = alloca ptr, align 8
  %4 = alloca i32, align 4
  store ptr %0, ptr %3, align 8
  store i32 %1, ptr %4, align 4
  %5 = load ptr, ptr %3, align 8
  %6 = call noundef ptr @_ZNK12ConstantPool4baseEv(ptr noundef nonnull align 8 dereferenceable(68) %5)
  %7 = load i32, ptr %4, align 4
  %8 = sext i32 %7 to i64
  %9 = getelementptr inbounds i64, ptr %6, i64 %8
  ret ptr %9
}

; Function Attrs: mustprogress nounwind uwtable
define linkonce_odr hidden noundef ptr @_ZNK11ConstMethod9constantsEv(ptr noundef nonnull align 8 dereferenceable(52) %0) #1 comdat align 2 {
  %2 = alloca ptr, align 8
  store ptr %0, ptr %2, align 8
  %3 = load ptr, ptr %2, align 8
  %4 = getelementptr inbounds %class.ConstMethod, ptr %3, i32 0, i32 1
  %5 = load ptr, ptr %4, align 8
  ret ptr %5
}

; Function Attrs: mustprogress nounwind uwtable
define linkonce_odr hidden noundef zeroext i16 @_ZN5Bytes10get_nativeItEET_PKv(ptr noundef %0) #1 comdat align 2 {
  %2 = alloca ptr, align 8
  %3 = alloca i16, align 2
  store ptr %0, ptr %2, align 8
  %4 = load ptr, ptr %2, align 8
  %5 = call noundef zeroext i1 @_Z10is_alignedIKvmEbPT_T0_(ptr noundef %4, i64 noundef 2)
  br i1 %5, label %6, label %9

6:                                                ; preds = %1
  %7 = load ptr, ptr %2, align 8
  %8 = load i16, ptr %7, align 2
  store i16 %8, ptr %3, align 2
  br label %11

9:                                                ; preds = %1
  %10 = load ptr, ptr %2, align 8
  call void @llvm.memcpy.p0.p0.i64(ptr align 2 %3, ptr align 1 %10, i64 2, i1 false)
  br label %11

11:                                               ; preds = %9, %6
  %12 = load i16, ptr %3, align 2
  ret i16 %12
}

; Function Attrs: mustprogress nounwind uwtable
define linkonce_odr hidden noundef i32 @_ZN9Bytecodes9java_codeENS_4CodeE(i32 noundef %0) #1 comdat align 2 {
  %2 = alloca i32, align 4
  store i32 %0, ptr %2, align 4
  %3 = load i32, ptr %2, align 4
  call void @_ZN9Bytecodes5checkENS_4CodeE(i32 noundef %3)
  %4 = load i32, ptr %2, align 4
  %5 = sext i32 %4 to i64
  %6 = getelementptr inbounds [239 x i32], ptr @_ZN9Bytecodes10_java_codeE, i64 0, i64 %5
  %7 = load i32, ptr %6, align 4
  ret i32 %7
}

; Function Attrs: mustprogress nounwind uwtable
define linkonce_odr hidden noundef i32 @_ZN9Bytecodes7code_atEPK6MethodPh(ptr noundef %0, ptr noundef %1) #1 comdat align 2 {
  %3 = alloca ptr, align 8
  %4 = alloca ptr, align 8
  %5 = alloca i32, align 4
  store ptr %0, ptr %3, align 8
  store ptr %1, ptr %4, align 8
  %6 = load ptr, ptr %4, align 8
  %7 = load i8, ptr %6, align 1
  %8 = zext i8 %7 to i32
  %9 = call noundef i32 @_ZN9Bytecodes4castEi(i32 noundef %8)
  store i32 %9, ptr %5, align 4
  %10 = load i32, ptr %5, align 4
  %11 = icmp ne i32 %10, 202
  br i1 %11, label %12, label %14

12:                                               ; preds = %2
  %13 = load i32, ptr %5, align 4
  br label %18

14:                                               ; preds = %2
  %15 = load ptr, ptr %3, align 8
  %16 = load ptr, ptr %4, align 8
  %17 = call noundef i32 @_ZN9Bytecodes22non_breakpoint_code_atEPK6MethodPh(ptr noundef %15, ptr noundef %16)
  br label %18

18:                                               ; preds = %14, %12
  %19 = phi i32 [ %13, %12 ], [ %17, %14 ]
  ret i32 %19
}

; Function Attrs: mustprogress nounwind uwtable
define linkonce_odr hidden noundef i32 @_ZN20ArgumentSizeComputer4sizeEv(ptr noundef nonnull align 8 dereferenceable(28) %0) #1 comdat align 2 {
  %2 = alloca ptr, align 8
  store ptr %0, ptr %2, align 8
  %3 = load ptr, ptr %2, align 8
  %4 = getelementptr inbounds %class.ArgumentSizeComputer, ptr %3, i32 0, i32 1
  %5 = load i32, ptr %4, align 8
  ret i32 %5
}

; Function Attrs: mustprogress nounwind uwtable
define linkonce_odr hidden noundef ptr @_ZN9vmSymbols23object_initializer_nameEv() #1 comdat align 2 {
  %1 = load ptr, ptr getelementptr inbounds ([0 x ptr], ptr @_ZN6Symbol11_vm_symbolsE, i64 0, i64 382), align 8
  ret ptr %1
}

; Function Attrs: mustprogress nounwind uwtable
define linkonce_odr hidden noundef zeroext i8 @_ZN9Signature10basic_typeEPK6Symbol(ptr noundef %0) #1 comdat align 2 {
  %2 = alloca ptr, align 8
  store ptr %0, ptr %2, align 8
  %3 = load ptr, ptr %2, align 8
  %4 = call noundef signext i8 @_ZNK6Symbol7char_atEi(ptr noundef nonnull align 4 dereferenceable(8) %3, i32 noundef 0)
  %5 = sext i8 %4 to i32
  %6 = call noundef zeroext i8 @_ZN9Signature10basic_typeEi(i32 noundef %5)
  ret i8 %6
}

; Function Attrs: mustprogress nounwind uwtable
define linkonce_odr hidden noundef ptr @_ZNK12ConstantPool9symbol_atEi(ptr noundef nonnull align 8 dereferenceable(68) %0, i32 noundef %1) #1 comdat align 2 {
  %3 = alloca ptr, align 8
  %4 = alloca i32, align 4
  store ptr %0, ptr %3, align 8
  store i32 %1, ptr %4, align 4
  %5 = load ptr, ptr %3, align 8
  %6 = load i32, ptr %4, align 4
  %7 = call noundef ptr @_ZNK12ConstantPool14symbol_at_addrEi(ptr noundef nonnull align 8 dereferenceable(68) %5, i32 noundef %6)
  %8 = load ptr, ptr %7, align 8
  ret ptr %8
}

; Function Attrs: mustprogress nounwind uwtable
define linkonce_odr hidden noundef ptr @_ZNK6Method9constantsEv(ptr noundef nonnull align 8 dereferenceable(88) %0) #1 comdat align 2 {
  %2 = alloca ptr, align 8
  store ptr %0, ptr %2, align 8
  %3 = load ptr, ptr %2, align 8
  %4 = call noundef ptr @_ZNK6Method11constMethodEv(ptr noundef nonnull align 8 dereferenceable(88) %3)
  %5 = call noundef ptr @_ZNK11ConstMethod9constantsEv(ptr noundef nonnull align 8 dereferenceable(52) %4)
  ret ptr %5
}

; Function Attrs: mustprogress nounwind uwtable
define linkonce_odr hidden noundef zeroext i16 @_ZN5Bytes13get_native_u2EPh(ptr noundef %0) #1 comdat align 2 {
  %2 = alloca ptr, align 8
  store ptr %0, ptr %2, align 8
  %3 = load ptr, ptr %2, align 8
  %4 = call noundef zeroext i16 @_ZN5Bytes10get_nativeItEET_PKv(ptr noundef %3)
  ret i16 %4
}

; Function Attrs: mustprogress nounwind uwtable
define linkonce_odr hidden noundef i32 @_ZN9Bytecodes12java_code_atEPK6MethodPh(ptr noundef %0, ptr noundef %1) #1 comdat align 2 {
  %3 = alloca ptr, align 8
  %4 = alloca ptr, align 8
  store ptr %0, ptr %3, align 8
  store ptr %1, ptr %4, align 8
  %5 = load ptr, ptr %3, align 8
  %6 = load ptr, ptr %4, align 8
  %7 = call noundef i32 @_ZN9Bytecodes7code_atEPK6MethodPh(ptr noundef %5, ptr noundef %6)
  %8 = call noundef i32 @_ZN9Bytecodes9java_codeENS_4CodeE(i32 noundef %7)
  ret i32 %8
}

; Function Attrs: mustprogress nounwind uwtable
define linkonce_odr hidden noundef ptr @_ZNK11ConstMethod9code_baseEv(ptr noundef nonnull align 8 dereferenceable(52) %0) #1 comdat align 2 {
  %2 = alloca ptr, align 8
  store ptr %0, ptr %2, align 8
  %3 = load ptr, ptr %2, align 8
  %4 = getelementptr inbounds %class.ConstMethod, ptr %3, i64 1
  ret ptr %4
}

; Function Attrs: mustprogress nounwind uwtable
define linkonce_odr hidden noundef ptr @_ZNK6Method11constMethodEv(ptr noundef nonnull align 8 dereferenceable(88) %0) #1 comdat align 2 {
  %2 = alloca ptr, align 8
  store ptr %0, ptr %2, align 8
  %3 = load ptr, ptr %2, align 8
  %4 = getelementptr inbounds %class.Method, ptr %3, i32 0, i32 1
  %5 = load ptr, ptr %4, align 8
  ret ptr %5
}

; Function Attrs: mustprogress nounwind uwtable
define hidden noundef i32 @_ZN23ExceptionMessageBuilder17get_NPE_null_slotEi(ptr noundef nonnull align 8 dereferenceable(22) %0, i32 noundef %1) #1 align 2 {
  %3 = alloca i32, align 4
  %4 = alloca ptr, align 8
  %5 = alloca i32, align 4
  %6 = alloca ptr, align 8
  %7 = alloca i32, align 4
  %8 = alloca i32, align 4
  %9 = alloca i32, align 4
  %10 = alloca ptr, align 8
  %11 = alloca i32, align 4
  %12 = alloca i32, align 4
  %13 = alloca ptr, align 8
  %14 = alloca i8, align 1
  %15 = alloca i32, align 4
  %16 = alloca ptr, align 8
  %17 = alloca i32, align 4
  %18 = alloca i32, align 4
  %19 = alloca ptr, align 8
  %20 = alloca i32, align 4
  %21 = alloca ptr, align 8
  %22 = alloca %class.ArgumentSizeComputer, align 8
  store ptr %0, ptr %4, align 8
  store i32 %1, ptr %5, align 4
  %23 = load ptr, ptr %4, align 8
  %24 = getelementptr inbounds %class.ExceptionMessageBuilder, ptr %23, i32 0, i32 1
  %25 = load ptr, ptr %24, align 8
  %26 = call noundef ptr @_ZNK6Method11constMethodEv(ptr noundef nonnull align 8 dereferenceable(88) %25)
  %27 = call noundef ptr @_ZNK11ConstMethod9code_baseEv(ptr noundef nonnull align 8 dereferenceable(52) %26)
  store ptr %27, ptr %6, align 8
  %28 = getelementptr inbounds %class.ExceptionMessageBuilder, ptr %23, i32 0, i32 1
  %29 = load ptr, ptr %28, align 8
  %30 = load ptr, ptr %6, align 8
  %31 = load i32, ptr %5, align 4
  %32 = sext i32 %31 to i64
  %33 = getelementptr inbounds i8, ptr %30, i64 %32
  %34 = call noundef i32 @_ZN9Bytecodes12java_code_atEPK6MethodPh(ptr noundef %29, ptr noundef %33)
  store i32 %34, ptr %7, align 4
  %35 = load i32, ptr %5, align 4
  %36 = add nsw i32 %35, 1
  store i32 %36, ptr %8, align 4
  %37 = load i32, ptr %7, align 4
  %38 = icmp eq i32 %37, 196
  br i1 %38, label %39, label %50

39:                                               ; preds = %2
  %40 = getelementptr inbounds %class.ExceptionMessageBuilder, ptr %23, i32 0, i32 1
  %41 = load ptr, ptr %40, align 8
  %42 = load ptr, ptr %6, align 8
  %43 = load i32, ptr %5, align 4
  %44 = sext i32 %43 to i64
  %45 = getelementptr inbounds i8, ptr %42, i64 %44
  %46 = getelementptr inbounds i8, ptr %45, i64 1
  %47 = call noundef i32 @_ZN9Bytecodes12java_code_atEPK6MethodPh(ptr noundef %41, ptr noundef %46)
  store i32 %47, ptr %7, align 4
  %48 = load i32, ptr %8, align 4
  %49 = add nsw i32 %48, 1
  store i32 %49, ptr %8, align 4
  br label %50

50:                                               ; preds = %39, %2
  %51 = load i32, ptr %7, align 4
  switch i32 %51, label %120 [
    i32 180, label %52
    i32 190, label %52
    i32 191, label %52
    i32 194, label %52
    i32 195, label %52
    i32 46, label %53
    i32 48, label %53
    i32 50, label %53
    i32 51, label %53
    i32 52, label %53
    i32 53, label %53
    i32 47, label %53
    i32 49, label %53
    i32 79, label %54
    i32 81, label %54
    i32 83, label %54
    i32 84, label %54
    i32 85, label %54
    i32 86, label %54
    i32 80, label %55
    i32 82, label %55
    i32 181, label %56
    i32 182, label %84
    i32 183, label %84
    i32 185, label %84
  ]

52:                                               ; preds = %50, %50, %50, %50, %50
  store i32 0, ptr %3, align 4
  br label %122

53:                                               ; preds = %50, %50, %50, %50, %50, %50, %50, %50
  store i32 1, ptr %3, align 4
  br label %122

54:                                               ; preds = %50, %50, %50, %50, %50, %50
  store i32 2, ptr %3, align 4
  br label %122

55:                                               ; preds = %50, %50
  store i32 3, ptr %3, align 4
  br label %122

56:                                               ; preds = %50
  %57 = load ptr, ptr %6, align 8
  %58 = load i32, ptr %8, align 4
  %59 = sext i32 %58 to i64
  %60 = getelementptr inbounds i8, ptr %57, i64 %59
  %61 = call noundef zeroext i16 @_ZN5Bytes13get_native_u2EPh(ptr noundef %60)
  %62 = zext i16 %61 to i32
  store i32 %62, ptr %9, align 4
  %63 = getelementptr inbounds %class.ExceptionMessageBuilder, ptr %23, i32 0, i32 1
  %64 = load ptr, ptr %63, align 8
  %65 = call noundef ptr @_ZNK6Method9constantsEv(ptr noundef nonnull align 8 dereferenceable(88) %64)
  store ptr %65, ptr %10, align 8
  %66 = load ptr, ptr %10, align 8
  %67 = load i32, ptr %9, align 4
  %68 = load i32, ptr %7, align 4
  %69 = call noundef zeroext i16 @_ZN12ConstantPool26name_and_type_ref_index_atEiN9Bytecodes4CodeE(ptr noundef nonnull align 8 dereferenceable(68) %66, i32 noundef %67, i32 noundef %68)
  %70 = zext i16 %69 to i32
  store i32 %70, ptr %11, align 4
  %71 = load ptr, ptr %10, align 8
  %72 = load i32, ptr %11, align 4
  %73 = call noundef zeroext i16 @_ZN12ConstantPool22signature_ref_index_atEi(ptr noundef nonnull align 8 dereferenceable(68) %71, i32 noundef %72)
  %74 = zext i16 %73 to i32
  store i32 %74, ptr %12, align 4
  %75 = load ptr, ptr %10, align 8
  %76 = load i32, ptr %12, align 4
  %77 = call noundef ptr @_ZNK12ConstantPool9symbol_atEi(ptr noundef nonnull align 8 dereferenceable(68) %75, i32 noundef %76)
  store ptr %77, ptr %13, align 8
  %78 = load ptr, ptr %13, align 8
  %79 = call noundef zeroext i8 @_ZN9Signature10basic_typeEPK6Symbol(ptr noundef %78)
  store i8 %79, ptr %14, align 1
  %80 = load i8, ptr %14, align 1
  %81 = zext i8 %80 to i64
  %82 = getelementptr inbounds [20 x i32], ptr @type2size, i64 0, i64 %81
  %83 = load i32, ptr %82, align 4
  store i32 %83, ptr %3, align 4
  br label %122

84:                                               ; preds = %50, %50, %50
  %85 = load ptr, ptr %6, align 8
  %86 = load i32, ptr %8, align 4
  %87 = sext i32 %86 to i64
  %88 = getelementptr inbounds i8, ptr %85, i64 %87
  %89 = call noundef zeroext i16 @_ZN5Bytes13get_native_u2EPh(ptr noundef %88)
  %90 = zext i16 %89 to i32
  store i32 %90, ptr %15, align 4
  %91 = getelementptr inbounds %class.ExceptionMessageBuilder, ptr %23, i32 0, i32 1
  %92 = load ptr, ptr %91, align 8
  %93 = call noundef ptr @_ZNK6Method9constantsEv(ptr noundef nonnull align 8 dereferenceable(88) %92)
  store ptr %93, ptr %16, align 8
  %94 = load ptr, ptr %16, align 8
  %95 = load i32, ptr %15, align 4
  %96 = load i32, ptr %7, align 4
  %97 = call noundef zeroext i16 @_ZN12ConstantPool26name_and_type_ref_index_atEiN9Bytecodes4CodeE(ptr noundef nonnull align 8 dereferenceable(68) %94, i32 noundef %95, i32 noundef %96)
  %98 = zext i16 %97 to i32
  store i32 %98, ptr %17, align 4
  %99 = load ptr, ptr %16, align 8
  %100 = load i32, ptr %17, align 4
  %101 = call noundef zeroext i16 @_ZN12ConstantPool17name_ref_index_atEi(ptr noundef nonnull align 8 dereferenceable(68) %99, i32 noundef %100)
  %102 = zext i16 %101 to i32
  store i32 %102, ptr %18, align 4
  %103 = load ptr, ptr %16, align 8
  %104 = load i32, ptr %18, align 4
  %105 = call noundef ptr @_ZNK12ConstantPool9symbol_atEi(ptr noundef nonnull align 8 dereferenceable(68) %103, i32 noundef %104)
  store ptr %105, ptr %19, align 8
  %106 = load ptr, ptr %19, align 8
  %107 = call noundef ptr @_ZN9vmSymbols23object_initializer_nameEv()
  %108 = icmp ne ptr %106, %107
  br i1 %108, label %109, label %119

109:                                              ; preds = %84
  %110 = load ptr, ptr %16, align 8
  %111 = load i32, ptr %17, align 4
  %112 = call noundef zeroext i16 @_ZN12ConstantPool22signature_ref_index_atEi(ptr noundef nonnull align 8 dereferenceable(68) %110, i32 noundef %111)
  %113 = zext i16 %112 to i32
  store i32 %113, ptr %20, align 4
  %114 = load ptr, ptr %16, align 8
  %115 = load i32, ptr %20, align 4
  %116 = call noundef ptr @_ZNK12ConstantPool9symbol_atEi(ptr noundef nonnull align 8 dereferenceable(68) %114, i32 noundef %115)
  store ptr %116, ptr %21, align 8
  %117 = load ptr, ptr %21, align 8
  call void @_ZN20ArgumentSizeComputerC1EP6Symbol(ptr noundef nonnull align 8 dereferenceable(28) %22, ptr noundef %117)
  %118 = call noundef i32 @_ZN20ArgumentSizeComputer4sizeEv(ptr noundef nonnull align 8 dereferenceable(28) %22)
  store i32 %118, ptr %3, align 4
  br label %122

119:                                              ; preds = %84
  store i32 -2, ptr %3, align 4
  br label %122

120:                                              ; preds = %50
  br label %121

121:                                              ; preds = %120
  store i32 -1, ptr %3, align 4
  br label %122

122:                                              ; preds = %121, %119, %109, %56, %55, %54, %53, %52
  %123 = load i32, ptr %3, align 4
  ret i32 %123
}