; Function Attrs: mustprogress nounwind uwtable
define hidden noundef i32 @_ZN23ExceptionMessageBuilder17get_NPE_null_slotEi(ptr nocapture noundef nonnull readonly align 8 dereferenceable(22) %0, i32 noundef %1) local_unnamed_addr #2 align 2 {
  %3 = alloca %class.ArgumentSizeComputer, align 8
  %4 = getelementptr inbounds i8, ptr %0, i64 8
  %5 = load ptr, ptr %4, align 8
  %6 = getelementptr inbounds i8, ptr %5, i64 8
  %7 = load ptr, ptr %6, align 8
  %8 = getelementptr inbounds i8, ptr %7, i64 56
  %9 = sext i32 %1 to i64
  %10 = getelementptr inbounds i8, ptr %8, i64 %9
  %11 = load i8, ptr %10, align 1
  %12 = zext i8 %11 to i32
  %.not.i.i = icmp eq i8 %11, -54
  br i1 %.not.i.i, label %13, label %_ZN9Bytecodes12java_code_atEPK6MethodPh.exit

13:                                               ; preds = %2
  %14 = tail call noundef i32 @_ZN9Bytecodes22non_breakpoint_code_atEPK6MethodPh(ptr noundef nonnull %5, ptr noundef nonnull %10) #11
  br label %_ZN9Bytecodes12java_code_atEPK6MethodPh.exit

_ZN9Bytecodes12java_code_atEPK6MethodPh.exit:     ; preds = %2, %13
  %15 = phi i32 [ %14, %13 ], [ %12, %2 ]
  %16 = sext i32 %15 to i64
  %17 = getelementptr inbounds [239 x i32], ptr @_ZN9Bytecodes10_java_codeE, i64 0, i64 %16
  %18 = load i32, ptr %17, align 4
  %19 = add nsw i32 %1, 1
  %20 = icmp eq i32 %18, 196
  br i1 %20, label %21, label %33

21:                                               ; preds = %_ZN9Bytecodes12java_code_atEPK6MethodPh.exit
  %22 = getelementptr inbounds i8, ptr %10, i64 1
  %23 = load i8, ptr %22, align 1
  %24 = zext i8 %23 to i32
  %.not.i.i38 = icmp eq i8 %23, -54
  br i1 %.not.i.i38, label %25, label %_ZN9Bytecodes12java_code_atEPK6MethodPh.exit39

25:                                               ; preds = %21
  %26 = load ptr, ptr %4, align 8
  %27 = tail call noundef i32 @_ZN9Bytecodes22non_breakpoint_code_atEPK6MethodPh(ptr noundef %26, ptr noundef nonnull %22) #11
  br label %_ZN9Bytecodes12java_code_atEPK6MethodPh.exit39

_ZN9Bytecodes12java_code_atEPK6MethodPh.exit39:   ; preds = %21, %25
  %28 = phi i32 [ %27, %25 ], [ %24, %21 ]
  %29 = sext i32 %28 to i64
  %30 = getelementptr inbounds [239 x i32], ptr @_ZN9Bytecodes10_java_codeE, i64 0, i64 %29
  %31 = load i32, ptr %30, align 4
  %32 = add nsw i32 %1, 2
  br label %33

33:                                               ; preds = %_ZN9Bytecodes12java_code_atEPK6MethodPh.exit39, %_ZN9Bytecodes12java_code_atEPK6MethodPh.exit
  %.036 = phi i32 [ %32, %_ZN9Bytecodes12java_code_atEPK6MethodPh.exit39 ], [ %19, %_ZN9Bytecodes12java_code_atEPK6MethodPh.exit ]
  %.035 = phi i32 [ %31, %_ZN9Bytecodes12java_code_atEPK6MethodPh.exit39 ], [ %18, %_ZN9Bytecodes12java_code_atEPK6MethodPh.exit ]
  switch i32 %.035, label %84 [
    i32 180, label %85
    i32 190, label %85
    i32 191, label %85
    i32 194, label %85
    i32 195, label %85
    i32 46, label %34
    i32 48, label %34
    i32 50, label %34
    i32 51, label %34
    i32 52, label %34
    i32 53, label %34
    i32 47, label %34
    i32 49, label %34
    i32 79, label %35
    i32 81, label %35
    i32 83, label %35
    i32 84, label %35
    i32 85, label %35
    i32 86, label %35
    i32 80, label %36
    i32 82, label %36
    i32 181, label %37
    i32 182, label %60
    i32 183, label %60
    i32 185, label %60
  ]

34:                                               ; preds = %33, %33, %33, %33, %33, %33, %33, %33
  br label %85

35:                                               ; preds = %33, %33, %33, %33, %33, %33
  br label %85

36:                                               ; preds = %33, %33
  br label %85

37:                                               ; preds = %33
  %38 = sext i32 %.036 to i64
  %39 = getelementptr inbounds i8, ptr %8, i64 %38
  %.0.i.i = load i16, ptr %39, align 1
  %40 = zext i16 %.0.i.i to i32
  %41 = load ptr, ptr %4, align 8
  %42 = getelementptr inbounds i8, ptr %41, i64 8
  %43 = load ptr, ptr %42, align 8
  %44 = getelementptr inbounds i8, ptr %43, i64 8
  %45 = load ptr, ptr %44, align 8
  %46 = tail call noundef zeroext i16 @_ZN12ConstantPool26name_and_type_ref_index_atEiN9Bytecodes4CodeE(ptr noundef nonnull align 8 dereferenceable(68) %45, i32 noundef %40, i32 noundef 181) #11
  %47 = zext i16 %46 to i32
  %48 = tail call noundef zeroext i16 @_ZN12ConstantPool22signature_ref_index_atEi(ptr noundef nonnull align 8 dereferenceable(68) %45, i32 noundef %47) #11
  %49 = getelementptr inbounds i8, ptr %45, i64 72
  %50 = zext i16 %48 to i64
  %51 = getelementptr inbounds i64, ptr %49, i64 %50
  %52 = load ptr, ptr %51, align 8
  %53 = getelementptr inbounds i8, ptr %52, i64 6
  %54 = load i8, ptr %53, align 1
  %55 = sext i8 %54 to i32
  %56 = tail call noundef zeroext i8 @_ZN9Signature10basic_typeEi(i32 noundef %55) #11
  %57 = zext i8 %56 to i64
  %58 = getelementptr inbounds [20 x i32], ptr @type2size, i64 0, i64 %57
  %59 = load i32, ptr %58, align 4
  br label %85

60:                                               ; preds = %33, %33, %33
  %61 = sext i32 %.036 to i64
  %62 = getelementptr inbounds i8, ptr %8, i64 %61
  %.0.i.i40 = load i16, ptr %62, align 1
  %63 = zext i16 %.0.i.i40 to i32
  %64 = load ptr, ptr %4, align 8
  %65 = getelementptr inbounds i8, ptr %64, i64 8
  %66 = load ptr, ptr %65, align 8
  %67 = getelementptr inbounds i8, ptr %66, i64 8
  %68 = load ptr, ptr %67, align 8
  %69 = tail call noundef zeroext i16 @_ZN12ConstantPool26name_and_type_ref_index_atEiN9Bytecodes4CodeE(ptr noundef nonnull align 8 dereferenceable(68) %68, i32 noundef %63, i32 noundef %.035) #11
  %70 = zext i16 %69 to i32
  %71 = tail call noundef zeroext i16 @_ZN12ConstantPool17name_ref_index_atEi(ptr noundef nonnull align 8 dereferenceable(68) %68, i32 noundef %70) #11
  %72 = getelementptr inbounds i8, ptr %68, i64 72
  %73 = zext i16 %71 to i64
  %74 = getelementptr inbounds i64, ptr %72, i64 %73
  %75 = load ptr, ptr %74, align 8
  %76 = load ptr, ptr getelementptr inbounds (i8, ptr @_ZN6Symbol11_vm_symbolsE, i64 3056), align 8
  %.not = icmp eq ptr %75, %76
  br i1 %.not, label %85, label %77

77:                                               ; preds = %60
  %78 = tail call noundef zeroext i16 @_ZN12ConstantPool22signature_ref_index_atEi(ptr noundef nonnull align 8 dereferenceable(68) %68, i32 noundef %70) #11
  %79 = zext i16 %78 to i64
  %80 = getelementptr inbounds i64, ptr %72, i64 %79
  %81 = load ptr, ptr %80, align 8
  call void @_ZN20ArgumentSizeComputerC1EP6Symbol(ptr noundef nonnull align 8 dereferenceable(28) %3, ptr noundef %81) #11
  %82 = getelementptr inbounds i8, ptr %3, i64 24
  %83 = load i32, ptr %82, align 8
  br label %85

84:                                               ; preds = %33
  br label %85

85:                                               ; preds = %60, %33, %33, %33, %33, %33, %84, %77, %37, %36, %35, %34
  %.0 = phi i32 [ -1, %84 ], [ %83, %77 ], [ %59, %37 ], [ 3, %36 ], [ 2, %35 ], [ 1, %34 ], [ 0, %33 ], [ 0, %33 ], [ 0, %33 ], [ 0, %33 ], [ 0, %33 ], [ -2, %60 ]
  ret i32 %.0
}